target datalayout = "e-m:e-p270:32:32-p271:32:32-p272:64:64-i64:64-i128:128-f80:128-n8:16:32:64-S128"
target triple = "x86_64-pc-linux-gnu"

%struct.Gia_Man_t_ = type { ptr, ptr, i32, i32, i32, i32, ptr, ptr, i32, i32, i32, ptr, ptr, %struct.Vec_Int_t_, %struct.Vec_Int_t_, i32, i32, i32, %struct.Vec_Int_t_, ptr, ptr, ptr, i32, i32, i32, i32, ptr, ptr, ptr, ptr, ptr, i32, i32, ptr, i32, ptr, ptr, ptr, ptr, ptr, ptr, ptr, ptr, ptr, ptr, ptr, ptr, ptr, ptr, ptr, ptr, ptr, ptr, %struct.Vec_Int_t_, %struct.Vec_Int_t_, ptr, ptr, ptr, ptr, ptr, ptr, ptr, ptr, ptr, ptr, ptr, ptr, ptr, ptr, ptr, ptr, ptr, ptr, ptr, ptr, ptr, i32, float, float, ptr, ptr, i32, ptr, ptr, ptr, ptr, ptr, ptr, ptr, ptr, ptr, ptr, ptr, ptr, ptr, ptr, ptr, i64, i64, ptr, ptr, i32, i32, i32, i32, i32, i32, i32, i32, i32, i32, i32, i32, ptr, ptr, ptr, ptr, ptr, ptr, ptr, ptr, i32, i32, i32, ptr, i32, i32, ptr, ptr, ptr, ptr, ptr, ptr, i32, i32, ptr, %struct.Vec_Int_t_, %struct.Vec_Int_t_, %struct.Vec_Int_t_, ptr, ptr, ptr, i32, i32, i32, i32, ptr, ptr, ptr, ptr, ptr }
%struct.Vec_Int_t_ = type { i32, i32, ptr }

@.str.4 = private unnamed_addr constant [93 x i8] c"Gia_ManPrintGateClasses(): The number of flop map entries differs from the number of flops.\0A\00", align 1
@.str.5 = private unnamed_addr constant [103 x i8] c"Gate-level abstraction:  PI = %d  PPI = %d  FF = %d (%.2f %%)  AND = %d (%.2f %%)  Obj = %d (%.2f %%)\0A\00", align 1

; Function Attrs: inlinehint nounwind uwtable
define internal void @Vec_IntFree(ptr noundef %0) #1 {
  %2 = alloca ptr, align 8
  store ptr %0, ptr %2, align 8, !tbaa !13
  %3 = load ptr, ptr %2, align 8, !tbaa !13
  %4 = getelementptr inbounds nuw %struct.Vec_Int_t_, ptr %3, i32 0, i32 2
  %5 = load ptr, ptr %4, align 8, !tbaa !45
  %6 = icmp ne ptr %5, null
  br i1 %6, label %7, label %13

7:                                                ; preds = %1
  %8 = load ptr, ptr %2, align 8, !tbaa !13
  %9 = getelementptr inbounds nuw %struct.Vec_Int_t_, ptr %8, i32 0, i32 2
  %10 = load ptr, ptr %9, align 8, !tbaa !45
  call void @free(ptr noundef %10) #10
  %11 = load ptr, ptr %2, align 8, !tbaa !13
  %12 = getelementptr inbounds nuw %struct.Vec_Int_t_, ptr %11, i32 0, i32 2
  store ptr null, ptr %12, align 8, !tbaa !45
  br label %14

13:                                               ; preds = %1
  br label %14

14:                                               ; preds = %13, %7
  %15 = load ptr, ptr %2, align 8, !tbaa !13
  %16 = icmp ne ptr %15, null
  br i1 %16, label %17, label %19

17:                                               ; preds = %14
  %18 = load ptr, ptr %2, align 8, !tbaa !13
  call void @free(ptr noundef %18) #10
  store ptr null, ptr %2, align 8, !tbaa !13
  br label %20

19:                                               ; preds = %14
  br label %20

20:                                               ; preds = %19, %17
  ret void
}

; Function Attrs: inlinehint nounwind uwtable
define internal i32 @Gia_ManAndNum(ptr noundef %0) #1 {
  %2 = alloca ptr, align 8
  store ptr %0, ptr %2, align 8, !tbaa !3
  %3 = load ptr, ptr %2, align 8, !tbaa !3
  %4 = getelementptr inbounds nuw %struct.Gia_Man_t_, ptr %3, i32 0, i32 4
  %5 = load i32, ptr %4, align 8, !tbaa !64
  %6 = load ptr, ptr %2, align 8, !tbaa !3
  %7 = getelementptr inbounds nuw %struct.Gia_Man_t_, ptr %6, i32 0, i32 11
  %8 = load ptr, ptr %7, align 8, !tbaa !43
  %9 = call i32 @Vec_IntSize(ptr noundef %8)
  %10 = sub nsw i32 %5, %9
  %11 = load ptr, ptr %2, align 8, !tbaa !3
  %12 = getelementptr inbounds nuw %struct.Gia_Man_t_, ptr %11, i32 0, i32 12
  %13 = load ptr, ptr %12, align 8, !tbaa !46
  %14 = call i32 @Vec_IntSize(ptr noundef %13)
  %15 = sub nsw i32 %10, %14
  %16 = sub nsw i32 %15, 1
  ret i32 %16
}

; Function Attrs: inlinehint nounwind uwtable
define internal i32 @Gia_ManRegNum(ptr noundef %0) #1 {
  %2 = alloca ptr, align 8
  store ptr %0, ptr %2, align 8, !tbaa !3
  %3 = load ptr, ptr %2, align 8, !tbaa !3
  %4 = getelementptr inbounds nuw %struct.Gia_Man_t_, ptr %3, i32 0, i32 2
  %5 = load i32, ptr %4, align 8, !tbaa !44
  ret i32 %5
}

; Function Attrs: inlinehint nounwind uwtable
define internal i32 @Gia_ManObjNum(ptr noundef %0) #1 {
  %2 = alloca ptr, align 8
  store ptr %0, ptr %2, align 8, !tbaa !3
  %3 = load ptr, ptr %2, align 8, !tbaa !3
  %4 = getelementptr inbounds nuw %struct.Gia_Man_t_, ptr %3, i32 0, i32 4
  %5 = load i32, ptr %4, align 8, !tbaa !64
  ret i32 %5
}

; Function Attrs: inlinehint nounwind uwtable
define internal i32 @Vec_IntSize(ptr noundef %0) #1 {
  %2 = alloca ptr, align 8
  store ptr %0, ptr %2, align 8, !tbaa !13
  %3 = load ptr, ptr %2, align 8, !tbaa !13
  %4 = getelementptr inbounds nuw %struct.Vec_Int_t_, ptr %3, i32 0, i32 1
  %5 = load i32, ptr %4, align 4, !tbaa !49
  ret i32 %5
}

; Function Attrs: nounwind uwtable
define void @Gia_ManPrintGateClasses(ptr noundef %0) #0 {
  %2 = alloca ptr, align 8
  %3 = alloca ptr, align 8
  %4 = alloca ptr, align 8
  %5 = alloca ptr, align 8
  %6 = alloca ptr, align 8
  %7 = alloca i32, align 4
  %8 = alloca i32, align 4
  store ptr %0, ptr %2, align 8, !tbaa !3
  call void @llvm.lifetime.start.p0(i64 8, ptr %3) #10
  call void @llvm.lifetime.start.p0(i64 8, ptr %4) #10
  call void @llvm.lifetime.start.p0(i64 8, ptr %5) #10
  call void @llvm.lifetime.start.p0(i64 8, ptr %6) #10
  call void @llvm.lifetime.start.p0(i64 4, ptr %7) #10
  %9 = load ptr, ptr %2, align 8, !tbaa !3
  %10 = getelementptr inbounds nuw %struct.Gia_Man_t_, ptr %9, i32 0, i32 58
  %11 = load ptr, ptr %10, align 8, !tbaa !68
  %12 = icmp eq ptr %11, null
  br i1 %12, label %13, label %14

13:                                               ; preds = %1
  store i32 1, ptr %8, align 4
  br label %78

14:                                               ; preds = %1
  %15 = load ptr, ptr %2, align 8, !tbaa !3
  %16 = getelementptr inbounds nuw %struct.Gia_Man_t_, ptr %15, i32 0, i32 58
  %17 = load ptr, ptr %16, align 8, !tbaa !68
  %18 = call i32 @Vec_IntSize(ptr noundef %17)
  %19 = load ptr, ptr %2, align 8, !tbaa !3
  %20 = call i32 @Gia_ManObjNum(ptr noundef %19)
  %21 = icmp ne i32 %18, %20
  br i1 %21, label %22, label %24

22:                                               ; preds = %14
  %23 = call i32 (ptr, ...) @printf(ptr noundef @.str.4)
  store i32 1, ptr %8, align 4
  br label %78

24:                                               ; preds = %14
  %25 = load ptr, ptr %2, align 8, !tbaa !3
  %26 = load ptr, ptr %2, align 8, !tbaa !3
  %27 = getelementptr inbounds nuw %struct.Gia_Man_t_, ptr %26, i32 0, i32 58
  %28 = load ptr, ptr %27, align 8, !tbaa !68
  call void @Gia_ManGlaCollect(ptr noundef %25, ptr noundef %28, ptr noundef %3, ptr noundef %4, ptr noundef %5, ptr noundef %6)
  %29 = load ptr, ptr %5, align 8, !tbaa !13
  %30 = call i32 @Vec_IntSize(ptr noundef %29)
  %31 = add nsw i32 1, %30
  %32 = load ptr, ptr %6, align 8, !tbaa !13
  %33 = call i32 @Vec_IntSize(ptr noundef %32)
  %34 = add nsw i32 %31, %33
  store i32 %34, ptr %7, align 4, !tbaa !15
  %35 = load ptr, ptr %3, align 8, !tbaa !13
  %36 = call i32 @Vec_IntSize(ptr noundef %35)
  %37 = load ptr, ptr %4, align 8, !tbaa !13
  %38 = call i32 @Vec_IntSize(ptr noundef %37)
  %39 = load ptr, ptr %5, align 8, !tbaa !13
  %40 = call i32 @Vec_IntSize(ptr noundef %39)
  %41 = load ptr, ptr %5, align 8, !tbaa !13
  %42 = call i32 @Vec_IntSize(ptr noundef %41)
  %43 = sitofp i32 %42 to double
  %44 = fmul double 1.000000e+02, %43
  %45 = load ptr, ptr %2, align 8, !tbaa !3
  %46 = call i32 @Gia_ManRegNum(ptr noundef %45)
  %47 = add nsw i32 %46, 1
  %48 = sitofp i32 %47 to double
  %49 = fdiv double %44, %48
  %50 = load ptr, ptr %6, align 8, !tbaa !13
  %51 = call i32 @Vec_IntSize(ptr noundef %50)
  %52 = load ptr, ptr %6, align 8, !tbaa !13
  %53 = call i32 @Vec_IntSize(ptr noundef %52)
  %54 = sitofp i32 %53 to double
  %55 = fmul double 1.000000e+02, %54
  %56 = load ptr, ptr %2, align 8, !tbaa !3
  %57 = call i32 @Gia_ManAndNum(ptr noundef %56)
  %58 = add nsw i32 %57, 1
  %59 = sitofp i32 %58 to double
  %60 = fdiv double %55, %59
  %61 = load i32, ptr %7, align 4, !tbaa !15
  %62 = load i32, ptr %7, align 4, !tbaa !15
  %63 = sitofp i32 %62 to double
  %64 = fmul double 1.000000e+02, %63
  %65 = load ptr, ptr %2, align 8, !tbaa !3
  %66 = call i32 @Gia_ManRegNum(ptr noundef %65)
  %67 = load ptr, ptr %2, align 8, !tbaa !3
  %68 = call i32 @Gia_ManAndNum(ptr noundef %67)
  %69 = add nsw i32 %66, %68
  %70 = add nsw i32 %69, 1
  %71 = sitofp i32 %70 to double
  %72 = fdiv double %64, %71
  %73 = call i32 (ptr, ...) @printf(ptr noundef @.str.5, i32 noundef %36, i32 noundef %38, i32 noundef %40, double noundef %49, i32 noundef %51, double noundef %60, i32 noundef %61, double noundef %72)
  %74 = load ptr, ptr %3, align 8, !tbaa !13
  call void @Vec_IntFree(ptr noundef %74)
  %75 = load ptr, ptr %4, align 8, !tbaa !13
  call void @Vec_IntFree(ptr noundef %75)
  %76 = load ptr, ptr %5, align 8, !tbaa !13
  call void @Vec_IntFree(ptr noundef %76)
  %77 = load ptr, ptr %6, align 8, !tbaa !13
  call void @Vec_IntFree(ptr noundef %77)
  store i32 0, ptr %8, align 4
  br label %78

78:                                               ; preds = %24, %22, %13
  call void @llvm.lifetime.end.p0(i64 4, ptr %7) #10
  call void @llvm.lifetime.end.p0(i64 8, ptr %6) #10
  call void @llvm.lifetime.end.p0(i64 8, ptr %5) #10
  call void @llvm.lifetime.end.p0(i64 8, ptr %4) #10
  call void @llvm.lifetime.end.p0(i64 8, ptr %3) #10
  %79 = load i32, ptr %8, align 4
  switch i32 %79, label %81 [
    i32 0, label %80
    i32 1, label %80
  ]

80:                                               ; preds = %78, %78
  ret void

81:                                               ; preds = %78
  unreachable
}