; Function Attrs: nounwind uwtable
define void @Gia_ManPrintGateClasses(ptr noundef readonly captures(none) %0) local_unnamed_addr #0 {
  %2 = alloca ptr, align 8
  %3 = alloca ptr, align 8
  %4 = alloca ptr, align 8
  %5 = alloca ptr, align 8
  call void @llvm.lifetime.start.p0(i64 8, ptr nonnull %2) #17
  call void @llvm.lifetime.start.p0(i64 8, ptr nonnull %3) #17
  call void @llvm.lifetime.start.p0(i64 8, ptr nonnull %4) #17
  call void @llvm.lifetime.start.p0(i64 8, ptr nonnull %5) #17
  %6 = getelementptr inbounds nuw i8, ptr %0, i64 448
  %7 = load ptr, ptr %6, align 8, !tbaa !63
  %8 = icmp eq ptr %7, null
  br i1 %8, label %67, label %9

9:                                                ; preds = %1
  %10 = getelementptr i8, ptr %7, i64 4
  %.val17 = load i32, ptr %10, align 4, !tbaa !34
  %11 = getelementptr i8, ptr %0, i64 24
  %.val20 = load i32, ptr %11, align 8, !tbaa !59
  %.not = icmp eq i32 %.val17, %.val20
  br i1 %.not, label %13, label %12

12:                                               ; preds = %9
  %puts = tail call i32 @puts(ptr nonnull dereferenceable(1) @str.1)
  br label %67

13:                                               ; preds = %9
  call void @Gia_ManGlaCollect(ptr noundef nonnull %0, ptr noundef nonnull %7, ptr noundef nonnull %2, ptr noundef nonnull %3, ptr noundef nonnull %4, ptr noundef nonnull %5)
  %14 = load ptr, ptr %4, align 8, !tbaa !48
  %15 = getelementptr i8, ptr %14, i64 4
  %.val16 = load i32, ptr %15, align 4, !tbaa !34
  %16 = add nsw i32 %.val16, 1
  %17 = load ptr, ptr %5, align 8, !tbaa !48
  %18 = getelementptr i8, ptr %17, i64 4
  %.val15 = load i32, ptr %18, align 4, !tbaa !34
  %19 = add nsw i32 %16, %.val15
  %20 = load ptr, ptr %2, align 8, !tbaa !48
  %21 = getelementptr i8, ptr %20, i64 4
  %.val14 = load i32, ptr %21, align 4, !tbaa !34
  %22 = load ptr, ptr %3, align 8, !tbaa !48
  %23 = getelementptr i8, ptr %22, i64 4
  %.val13 = load i32, ptr %23, align 4, !tbaa !34
  %24 = sitofp i32 %.val16 to double
  %25 = fmul double %24, 1.000000e+02
  %26 = getelementptr i8, ptr %0, i64 16
  %.val19 = load i32, ptr %26, align 8, !tbaa !32
  %27 = add i32 %.val19, 1
  %28 = sitofp i32 %27 to double
  %29 = fdiv double %25, %28
  %30 = sitofp i32 %.val15 to double
  %31 = fmul double %30, 1.000000e+02
  %32 = load i32, ptr %11, align 8, !tbaa !59
  %33 = getelementptr inbounds nuw i8, ptr %0, i64 64
  %34 = load ptr, ptr %33, align 8, !tbaa !33
  %35 = getelementptr i8, ptr %34, i64 4
  %.val3.i = load i32, ptr %35, align 4, !tbaa !34
  %36 = getelementptr inbounds nuw i8, ptr %0, i64 72
  %37 = load ptr, ptr %36, align 8, !tbaa !41
  %38 = getelementptr i8, ptr %37, i64 4
  %.val.i = load i32, ptr %38, align 4, !tbaa !34
  %39 = add i32 %.val.i, %.val3.i
  %40 = xor i32 %39, -1
  %41 = sub i32 %32, %39
  %42 = sitofp i32 %41 to double
  %43 = fdiv double %31, %42
  %44 = sitofp i32 %19 to double
  %45 = fmul double %44, 1.000000e+02
  %46 = add i32 %27, %32
  %47 = add i32 %46, %40
  %48 = sitofp i32 %47 to double
  %49 = fdiv double %45, %48
  %50 = call i32 (ptr, ...) @printf(ptr noundef nonnull dereferenceable(1) @.str.5, i32 noundef %.val14, i32 noundef %.val13, i32 noundef %.val16, double noundef %29, i32 noundef %.val15, double noundef %43, i32 noundef %19, double noundef %49)
  %51 = load ptr, ptr %2, align 8, !tbaa !48
  %52 = getelementptr inbounds nuw i8, ptr %51, i64 8
  %53 = load ptr, ptr %52, align 8, !tbaa !37
  %.not.i = icmp eq ptr %53, null
  br i1 %.not.i, label %Vec_IntFree.exit, label %54

54:                                               ; preds = %13
  call void @free(ptr noundef nonnull %53) #17
  br label %Vec_IntFree.exit

Vec_IntFree.exit:                                 ; preds = %13, %54
  call void @free(ptr noundef nonnull %51) #17
  %55 = load ptr, ptr %3, align 8, !tbaa !48
  %56 = getelementptr inbounds nuw i8, ptr %55, i64 8
  %57 = load ptr, ptr %56, align 8, !tbaa !37
  %.not.i23 = icmp eq ptr %57, null
  br i1 %.not.i23, label %Vec_IntFree.exit24, label %58

58:                                               ; preds = %Vec_IntFree.exit
  call void @free(ptr noundef nonnull %57) #17
  br label %Vec_IntFree.exit24

Vec_IntFree.exit24:                               ; preds = %Vec_IntFree.exit, %58
  call void @free(ptr noundef nonnull %55) #17
  %59 = load ptr, ptr %4, align 8, !tbaa !48
  %60 = getelementptr inbounds nuw i8, ptr %59, i64 8
  %61 = load ptr, ptr %60, align 8, !tbaa !37
  %.not.i25 = icmp eq ptr %61, null
  br i1 %.not.i25, label %Vec_IntFree.exit26, label %62

62:                                               ; preds = %Vec_IntFree.exit24
  call void @free(ptr noundef nonnull %61) #17
  br label %Vec_IntFree.exit26

Vec_IntFree.exit26:                               ; preds = %Vec_IntFree.exit24, %62
  call void @free(ptr noundef nonnull %59) #17
  %63 = load ptr, ptr %5, align 8, !tbaa !48
  %64 = getelementptr inbounds nuw i8, ptr %63, i64 8
  %65 = load ptr, ptr %64, align 8, !tbaa !37
  %.not.i27 = icmp eq ptr %65, null
  br i1 %.not.i27, label %Vec_IntFree.exit28, label %66

66:                                               ; preds = %Vec_IntFree.exit26
  call void @free(ptr noundef nonnull %65) #17
  br label %Vec_IntFree.exit28

Vec_IntFree.exit28:                               ; preds = %Vec_IntFree.exit26, %66
  call void @free(ptr noundef nonnull %63) #17
  br label %67

67:                                               ; preds = %1, %Vec_IntFree.exit28, %12
  call void @llvm.lifetime.end.p0(i64 8, ptr nonnull %5) #17
  call void @llvm.lifetime.end.p0(i64 8, ptr nonnull %4) #17
  call void @llvm.lifetime.end.p0(i64 8, ptr nonnull %3) #17
  call void @llvm.lifetime.end.p0(i64 8, ptr nonnull %2) #17
  ret void
}